; Function Attrs: mustprogress uwtable
define hidden void @_ZNK7datalog9ddnf_core7displayERSo(ptr noundef nonnull readonly align 8 captures(none) dereferenceable(8) %0, ptr noundef nonnull align 8 dereferenceable(8) %1) local_unnamed_addr #3 align 2 {
  %3 = load ptr, ptr %0, align 8, !tbaa !3
  %4 = getelementptr inbounds nuw i8, ptr %3, i64 16
  br label %5

5:                                                ; preds = %13, %2
  %indvars.iv.i = phi i64 [ %indvars.iv.next.i, %13 ], [ 0, %2 ]
  %6 = load ptr, ptr %4, align 8, !tbaa !10
  %7 = icmp eq ptr %6, null
  br i1 %7, label %_ZNK15ref_vector_coreIN7datalog9ddnf_nodeE19ref_manager_wrapperIS1_NS0_8ddnf_mgrEEE4sizeEv.exit.i, label %8

8:                                                ; preds = %5
  %9 = getelementptr inbounds i8, ptr %6, i64 -4
  %10 = load i32, ptr %9, align 4, !tbaa !57
  %11 = zext i32 %10 to i64
  br label %_ZNK15ref_vector_coreIN7datalog9ddnf_nodeE19ref_manager_wrapperIS1_NS0_8ddnf_mgrEEE4sizeEv.exit.i

_ZNK15ref_vector_coreIN7datalog9ddnf_nodeE19ref_manager_wrapperIS1_NS0_8ddnf_mgrEEE4sizeEv.exit.i: ; preds = %8, %5
  %.0.i.i.i = phi i64 [ %11, %8 ], [ 0, %5 ]
  %12 = icmp samesign ult i64 %indvars.iv.i, %.0.i.i.i
  br i1 %12, label %13, label %_ZNK7datalog8ddnf_mgr7displayERSo.exit

13:                                               ; preds = %_ZNK15ref_vector_coreIN7datalog9ddnf_nodeE19ref_manager_wrapperIS1_NS0_8ddnf_mgrEEE4sizeEv.exit.i
  %14 = getelementptr inbounds nuw ptr, ptr %6, i64 %indvars.iv.i
  %15 = load ptr, ptr %14, align 8, !tbaa !58
  tail call void @_ZNK7datalog9ddnf_node7displayERSo(ptr noundef nonnull align 8 dereferenceable(96) %15, ptr noundef nonnull align 8 dereferenceable(8) %1)
  %16 = tail call noundef nonnull align 8 dereferenceable(8) ptr @_ZSt16__ostream_insertIcSt11char_traitsIcEERSt13basic_ostreamIT_T0_ES6_PKS3_l(ptr noundef nonnull align 8 dereferenceable(8) %1, ptr noundef nonnull @.str.4, i64 noundef 1)
  %indvars.iv.next.i = add nuw nsw i64 %indvars.iv.i, 1
  br label %5, !llvm.loop !71

_ZNK7datalog8ddnf_mgr7displayERSo.exit:           ; preds = %_ZNK15ref_vector_coreIN7datalog9ddnf_nodeE19ref_manager_wrapperIS1_NS0_8ddnf_mgrEEE4sizeEv.exit.i
  ret void
}